; Function Attrs: nounwind uwtable
define noundef ptr @Gia_Iso2ManCollectOrder2(ptr noundef %0, ptr noundef readonly captures(none) %1, i32 noundef %2) local_unnamed_addr #0 {
  %4 = tail call noalias dereferenceable_or_null(16) ptr @malloc(i64 noundef 16) #24
  %5 = getelementptr inbounds nuw i8, ptr %4, i64 4
  store i32 0, ptr %5, align 4, !tbaa !28
  store i32 1000, ptr %4, align 8, !tbaa !31
  %6 = tail call noalias dereferenceable_or_null(4000) ptr @malloc(i64 noundef 4000) #24
  %7 = getelementptr inbounds nuw i8, ptr %4, i64 8
  store ptr %6, ptr %7, align 8, !tbaa !32
  tail call void @Gia_ManIncrementTravId(ptr noundef %0) #26
  %8 = icmp sgt i32 %2, 0
  br i1 %8, label %.lr.ph, label %._crit_edge

.lr.ph:                                           ; preds = %3
  %9 = getelementptr i8, ptr %0, i64 72
  %wide.trip.count = zext nneg i32 %2 to i64
  br label %10

10:                                               ; preds = %.lr.ph, %10
  %indvars.iv = phi i64 [ 0, %.lr.ph ], [ %indvars.iv.next, %10 ]
  %11 = getelementptr inbounds nuw i32, ptr %1, i64 %indvars.iv
  %12 = load i32, ptr %11, align 4, !tbaa !34
  %.val11 = load ptr, ptr %9, align 8, !tbaa !30
  %13 = getelementptr i8, ptr %.val11, i64 8
  %.val11.val = load ptr, ptr %13, align 8, !tbaa !32
  %14 = sext i32 %12 to i64
  %15 = getelementptr inbounds i32, ptr %.val11.val, i64 %14
  %16 = load i32, ptr %15, align 4, !tbaa !34
  tail call void @Gia_Iso2ManCollectOrder2_rec(ptr noundef %0, i32 noundef %16, ptr noundef nonnull %4)
  %indvars.iv.next = add nuw nsw i64 %indvars.iv, 1
  %exitcond.not = icmp eq i64 %indvars.iv.next, %wide.trip.count
  br i1 %exitcond.not, label %._crit_edge, label %10, !llvm.loop !102

._crit_edge:                                      ; preds = %10, %3
  ret ptr %4
}